target datalayout = "e-m:e-p270:32:32-p271:32:32-p272:64:64-i64:64-i128:128-f80:128-n8:16:32:64-S128"
target triple = "x86_64-pc-linux-gnu"

%struct.Abc_Frame_t_ = type { ptr, ptr, ptr, ptr, ptr, ptr, ptr, ptr, ptr, ptr, i32, i32, i32, i32, i32, ptr, float, float, i32, i32, ptr, ptr, ptr, double, double, ptr, ptr, ptr, ptr, ptr, ptr, ptr, ptr, ptr, ptr, ptr, ptr, float, ptr, i32, ptr, ptr, ptr, ptr, ptr, i32, i32, i32, i32, i32, i32, ptr, ptr, ptr, ptr, ptr, ptr, i32, i32, ptr, ptr, ptr, ptr, ptr, ptr, ptr, ptr, ptr, ptr, ptr, ptr, ptr, ptr, ptr, ptr, ptr, ptr, ptr, ptr, ptr, ptr, ptr, ptr, ptr, ptr, ptr, ptr, ptr, ptr }

@stdout = external global ptr, align 8
@globalUtilOptind = external global i32, align 4
@.str.45 = private unnamed_addr constant [33 x i8] c"   -h \09\09print the command usage\0A\00", align 1
@.str.56 = private unnamed_addr constant [3 x i8] c"hn\00", align 1
@.str.57 = private unnamed_addr constant [4 x i8] c"%s \00", align 1
@.str.58 = private unnamed_addr constant [2 x i8] c"\0A\00", align 1
@.str.59 = private unnamed_addr constant [26 x i8] c"usage: echo [-h] string \0A\00", align 1
@.str.60 = private unnamed_addr constant [37 x i8] c"   -n \09\09suppress newline at the end\0A\00", align 1

; Function Attrs: nounwind uwtable
define internal i32 @CmdCommandEcho(ptr noundef %0, i32 noundef %1, ptr noundef %2) #0 {
  %4 = alloca i32, align 4
  %5 = alloca ptr, align 8
  %6 = alloca i32, align 4
  %7 = alloca ptr, align 8
  %8 = alloca i32, align 4
  %9 = alloca i32, align 4
  %10 = alloca i32, align 4
  store ptr %0, ptr %5, align 8
  store i32 %1, ptr %6, align 4
  store ptr %2, ptr %7, align 8
  store i32 1, ptr %10, align 4
  call void (...) @Extra_UtilGetoptReset()
  br label %11

11:                                               ; preds = %21, %3
  %12 = load i32, ptr %6, align 4
  %13 = load ptr, ptr %7, align 8
  %14 = call i32 @Extra_UtilGetopt(i32 noundef %12, ptr noundef %13, ptr noundef @.str.56)
  store i32 %14, ptr %9, align 4
  %15 = icmp ne i32 %14, -1
  br i1 %15, label %16, label %22

16:                                               ; preds = %11
  %17 = load i32, ptr %9, align 4
  switch i32 %17, label %20 [
    i32 110, label %18
    i32 104, label %19
  ]

18:                                               ; preds = %16
  store i32 0, ptr %10, align 4
  br label %21

19:                                               ; preds = %16
  br label %81

20:                                               ; preds = %16
  br label %81

21:                                               ; preds = %18
  br label %11, !llvm.loop !9

22:                                               ; preds = %11
  %23 = load ptr, ptr %5, align 8
  %24 = getelementptr inbounds %struct.Abc_Frame_t_, ptr %23, i32 0, i32 20
  %25 = load ptr, ptr %24, align 8
  %26 = load ptr, ptr @stdout, align 8
  %27 = icmp eq ptr %25, %26
  br i1 %27, label %28, label %48

28:                                               ; preds = %22
  %29 = load i32, ptr @globalUtilOptind, align 4
  store i32 %29, ptr %8, align 4
  br label %30

30:                                               ; preds = %40, %28
  %31 = load i32, ptr %8, align 4
  %32 = load i32, ptr %6, align 4
  %33 = icmp slt i32 %31, %32
  br i1 %33, label %34, label %43

34:                                               ; preds = %30
  %35 = load ptr, ptr %7, align 8
  %36 = load i32, ptr %8, align 4
  %37 = sext i32 %36 to i64
  %38 = getelementptr inbounds ptr, ptr %35, i64 %37
  %39 = load ptr, ptr %38, align 8
  call void (i32, ptr, ...) @Abc_Print(i32 noundef 1, ptr noundef @.str.57, ptr noundef %39)
  br label %40

40:                                               ; preds = %34
  %41 = load i32, ptr %8, align 4
  %42 = add nsw i32 %41, 1
  store i32 %42, ptr %8, align 4
  br label %30, !llvm.loop !10

43:                                               ; preds = %30
  %44 = load i32, ptr %10, align 4
  %45 = icmp ne i32 %44, 0
  br i1 %45, label %46, label %47

46:                                               ; preds = %43
  call void (i32, ptr, ...) @Abc_Print(i32 noundef 1, ptr noundef @.str.58)
  br label %47

47:                                               ; preds = %46, %43
  br label %80

48:                                               ; preds = %22
  %49 = load i32, ptr @globalUtilOptind, align 4
  store i32 %49, ptr %8, align 4
  br label %50

50:                                               ; preds = %64, %48
  %51 = load i32, ptr %8, align 4
  %52 = load i32, ptr %6, align 4
  %53 = icmp slt i32 %51, %52
  br i1 %53, label %54, label %67

54:                                               ; preds = %50
  %55 = load ptr, ptr %5, align 8
  %56 = getelementptr inbounds %struct.Abc_Frame_t_, ptr %55, i32 0, i32 20
  %57 = load ptr, ptr %56, align 8
  %58 = load ptr, ptr %7, align 8
  %59 = load i32, ptr %8, align 4
  %60 = sext i32 %59 to i64
  %61 = getelementptr inbounds ptr, ptr %58, i64 %60
  %62 = load ptr, ptr %61, align 8
  %63 = call i32 (ptr, ptr, ...) @fprintf(ptr noundef %57, ptr noundef @.str.57, ptr noundef %62) #9
  br label %64

64:                                               ; preds = %54
  %65 = load i32, ptr %8, align 4
  %66 = add nsw i32 %65, 1
  store i32 %66, ptr %8, align 4
  br label %50, !llvm.loop !11

67:                                               ; preds = %50
  %68 = load i32, ptr %10, align 4
  %69 = icmp ne i32 %68, 0
  br i1 %69, label %70, label %75

70:                                               ; preds = %67
  %71 = load ptr, ptr %5, align 8
  %72 = getelementptr inbounds %struct.Abc_Frame_t_, ptr %71, i32 0, i32 20
  %73 = load ptr, ptr %72, align 8
  %74 = call i32 (ptr, ptr, ...) @fprintf(ptr noundef %73, ptr noundef @.str.58) #9
  br label %75

75:                                               ; preds = %70, %67
  %76 = load ptr, ptr %5, align 8
  %77 = getelementptr inbounds %struct.Abc_Frame_t_, ptr %76, i32 0, i32 20
  %78 = load ptr, ptr %77, align 8
  %79 = call i32 @fflush(ptr noundef %78)
  br label %80

80:                                               ; preds = %75, %47
  store i32 0, ptr %4, align 4
  br label %94

81:                                               ; preds = %20, %19
  %82 = load ptr, ptr %5, align 8
  %83 = getelementptr inbounds %struct.Abc_Frame_t_, ptr %82, i32 0, i32 21
  %84 = load ptr, ptr %83, align 8
  %85 = call i32 (ptr, ptr, ...) @fprintf(ptr noundef %84, ptr noundef @.str.59) #9
  %86 = load ptr, ptr %5, align 8
  %87 = getelementptr inbounds %struct.Abc_Frame_t_, ptr %86, i32 0, i32 21
  %88 = load ptr, ptr %87, align 8
  %89 = call i32 (ptr, ptr, ...) @fprintf(ptr noundef %88, ptr noundef @.str.60) #9
  %90 = load ptr, ptr %5, align 8
  %91 = getelementptr inbounds %struct.Abc_Frame_t_, ptr %90, i32 0, i32 21
  %92 = load ptr, ptr %91, align 8
  %93 = call i32 (ptr, ptr, ...) @fprintf(ptr noundef %92, ptr noundef @.str.45) #9
  store i32 1, ptr %4, align 4
  br label %94

94:                                               ; preds = %81, %80
  %95 = load i32, ptr %4, align 4
  ret i32 %95
}