; Function Attrs: nounwind uwtable
define internal range(i32 0, 2) i32 @CmdCommandEcho(ptr noundef readonly captures(none) %0, i32 noundef %1, ptr noundef %2) #0 {
  tail call void (...) @Extra_UtilGetoptReset() #17
  br label %4

4:                                                ; preds = %4, %3
  %.not25 = phi i1 [ false, %3 ], [ true, %4 ]
  %5 = tail call i32 @Extra_UtilGetopt(i32 noundef %1, ptr noundef %2, ptr noundef nonnull @.str.56) #17
  switch i32 %5, label %28 [
    i32 -1, label %6
    i32 110, label %4
  ], !llvm.loop !9

6:                                                ; preds = %4
  %7 = getelementptr inbounds nuw i8, ptr %0, i64 128
  %8 = load ptr, ptr %7, align 8
  %9 = load ptr, ptr @stdout, align 8
  %10 = icmp eq ptr %8, %9
  %11 = load i32, ptr @globalUtilOptind, align 4
  %12 = icmp slt i32 %11, %1
  br i1 %10, label %13, label %18

13:                                               ; preds = %6
  br i1 %12, label %.lr.ph31.preheader, label %._crit_edge32

.lr.ph31.preheader:                               ; preds = %13
  %14 = sext i32 %11 to i64
  %wide.trip.count38 = sext i32 %1 to i64
  br label %.lr.ph31

.lr.ph31:                                         ; preds = %.lr.ph31.preheader, %.lr.ph31
  %indvars.iv35 = phi i64 [ %14, %.lr.ph31.preheader ], [ %indvars.iv.next36, %.lr.ph31 ]
  %15 = getelementptr inbounds ptr, ptr %2, i64 %indvars.iv35
  %16 = load ptr, ptr %15, align 8
  tail call void (i32, ptr, ...) @Abc_Print(i32 noundef 1, ptr noundef nonnull @.str.57, ptr noundef %16)
  %indvars.iv.next36 = add nsw i64 %indvars.iv35, 1
  %exitcond39.not = icmp eq i64 %indvars.iv.next36, %wide.trip.count38
  br i1 %exitcond39.not, label %._crit_edge32, label %.lr.ph31, !llvm.loop !10

._crit_edge32:                                    ; preds = %.lr.ph31, %13
  br i1 %.not25, label %36, label %17

17:                                               ; preds = %._crit_edge32
  tail call void (i32, ptr, ...) @Abc_Print(i32 noundef 1, ptr noundef nonnull @.str.58)
  br label %36

18:                                               ; preds = %6
  br i1 %12, label %.lr.ph.preheader, label %._crit_edge

.lr.ph.preheader:                                 ; preds = %18
  %19 = sext i32 %11 to i64
  %wide.trip.count = sext i32 %1 to i64
  br label %.lr.ph

.lr.ph:                                           ; preds = %.lr.ph.preheader, %.lr.ph
  %indvars.iv = phi i64 [ %19, %.lr.ph.preheader ], [ %indvars.iv.next, %.lr.ph ]
  %20 = load ptr, ptr %7, align 8
  %21 = getelementptr inbounds ptr, ptr %2, i64 %indvars.iv
  %22 = load ptr, ptr %21, align 8
  %23 = tail call i32 (ptr, ptr, ...) @fprintf(ptr noundef %20, ptr noundef nonnull @.str.57, ptr noundef %22) #17
  %indvars.iv.next = add nsw i64 %indvars.iv, 1
  %exitcond.not = icmp eq i64 %indvars.iv.next, %wide.trip.count
  br i1 %exitcond.not, label %._crit_edge.loopexit, label %.lr.ph, !llvm.loop !11

._crit_edge.loopexit:                             ; preds = %.lr.ph
  %.pre40.pre = load ptr, ptr %7, align 8
  br label %._crit_edge

._crit_edge:                                      ; preds = %._crit_edge.loopexit, %18
  %.pre40 = phi ptr [ %.pre40.pre, %._crit_edge.loopexit ], [ %8, %18 ]
  br i1 %.not25, label %25, label %24

24:                                               ; preds = %._crit_edge
  %fputc = tail call i32 @fputc(i32 10, ptr %.pre40)
  %.pre = load ptr, ptr %7, align 8
  br label %25

25:                                               ; preds = %24, %._crit_edge
  %26 = phi ptr [ %.pre, %24 ], [ %.pre40, %._crit_edge ]
  %27 = tail call i32 @fflush(ptr noundef %26)
  br label %36

28:                                               ; preds = %4
  %29 = getelementptr inbounds nuw i8, ptr %0, i64 136
  %30 = load ptr, ptr %29, align 8
  %31 = tail call i64 @fwrite(ptr nonnull @.str.59, i64 25, i64 1, ptr %30)
  %32 = load ptr, ptr %29, align 8
  %33 = tail call i64 @fwrite(ptr nonnull @.str.60, i64 36, i64 1, ptr %32)
  %34 = load ptr, ptr %29, align 8
  %35 = tail call i64 @fwrite(ptr nonnull @.str.45, i64 32, i64 1, ptr %34)
  br label %36

36:                                               ; preds = %25, %17, %._crit_edge32, %28
  %.022 = phi i32 [ 1, %28 ], [ 0, %._crit_edge32 ], [ 0, %17 ], [ 0, %25 ]
  ret i32 %.022
}